(lp0
((F191.2293243408203
F269.87713623046875
tp1
F52.683441162109375
F-1.0
F0.0
I0
I-1
S'9'
p2
tp3
a((F181.3671875
F111.48667907714844
tp4
F50.23535919189453
F-1.0
F0.0
I0
I-1
S'.'
p5
tp6
a((F455.3021240234375
F109.60884094238281
tp7
F50.279090881347656
F-1.0
F0.0
I0
I-1
S'V'
p8
tp9
a((F316.79473876953125
F163.49281311035156
tp10
F46.99209213256836
F-1.0
F0.0
I0
I-1
S'J'
p11
tp12
a((F358.94305419921875
F268.1905517578125
tp13
F45.496665954589844
F-1.0
F0.0
I0
I-1
S'6'
p14
tp15
a((F136.05184936523438
F270.8254699707031
tp16
F50.83168029785156
F-1.0
F0.0
I0
I-1
S'-'
p17
tp18
a((F303.5099182128906
F269.48028564453125
tp19
F52.354087829589844
F-1.0
F0.0
I0
I-1
S'7'
p20
tp21
a((F248.36695861816406
F269.2704162597656
tp22
F52.19239044189453
F-1.0
F0.0
I0
I-1
S'8'
p23
tp24
a((F110.27521514892578
F216.04290771484375
tp25
F51.08375930786133
F-1.0
F0.0
I0
I-1
S'['
p26
tp27
a((F592.6021728515625
F161.32177734375
tp28
F47.51749801635742
F-1.0
F0.0
I0
I-1
S'S'
p29
tp30
a((F344.2865905761719
F112.90350341796875
tp31
F33.7813835144043
F-1.0
F0.0
I0
I-1
S'N'
p32
tp33
a((F372.2648010253906
F163.51055908203125
tp34
F49.1811637878418
F-1.0
F0.0
I0
I-1
S'H'
p35
tp36
a((F86.0
F273.0
tp37
F25.495098114013672
F-1.0
F0.0
I0
I-1
g17
tp38
a((F25.0
F273.0
tp39
F24.083189010620117
F-1.0
F0.0
I0
I-1
S'='
p40
tp41
a((F614.0
F112.0
tp42
F25.612497329711914
F-1.0
F0.0
I0
I-1
S'Z'
p43
tp44
a((F564.0
F113.0
tp45
F23.34523582458496
F-1.0
F0.0
I0
I-1
S'X'
p46
tp47
a((F695.306396484375
F161.14295959472656
tp48
F51.48766326904297
F-1.0
F0.0
I0
I-1
S'Shift'
p49
tp50
a((F96.29410552978516
F163.8699493408203
tp51
F34.001556396484375
F-1.0
F0.0
I0
I-1
S"'"
p52
tp53
a((F695.2758178710938
F258.587646484375
tp54
F37.95848083496094
F-1.0
F0.0
I0
I-1
S'`'
p55
tp56
a((F400.0
F110.0
tp57
F25.0
F-1.0
F0.0
I0
I-1
S'B'
p58
tp59
a((F583.174560546875
F263.0815734863281
tp60
F37.03056335449219
F-1.0
F0.0
I0
I-1
S'2'
p61
tp62
a((F205.42074584960938
F163.5049285888672
tp63
F42.18238067626953
F-1.0
F0.0
I0
I-1
S'L'
p64
tp65
a((F386.09942626953125
F214.913330078125
tp66
F49.1297607421875
F-1.0
F0.0
I0
I-1
S'Y'
p67
tp68
a((F649.825927734375
F166.06683349609375
tp69
F37.204891204833984
F-1.0
F0.0
I0
I-1
S'A'
p70
tp71
a((F262.6919250488281
F163.27024841308594
tp72
F46.22260665893555
F-1.0
F0.0
I0
I-1
S'K'
p73
tp74
a((F471.0728454589844
F269.3174133300781
tp75
F53.742454528808594
F-1.0
F0.0
I0
I-1
S'4'
p76
tp77
a((F126.78398132324219
F112.56222534179688
tp78
F38.11833953857422
F-1.0
F0.0
I0
I-1
S'/'
p79
tp80
a((F416.7403259277344
F268.0956115722656
tp81
F51.51197814941406
F-1.0
F0.0
I0
I-1
S'5'
p82
tp83
a((F165.9252471923828
F215.3862762451172
tp84
F48.015655517578125
F-1.0
F0.0
I0
I-1
S'P'
p85
tp86
a((F331.9788818359375
F214.91836547851562
tp87
F49.48505401611328
F-1.0
F0.0
I0
I-1
S'U'
p88
tp89
a((F289.84429931640625
F111.41800689697266
tp90
F52.495819091796875
F-1.0
F0.0
I0
I-1
S'M'
p91
tp92
a((F442.8766784667969
F215.21131896972656
tp93
F51.082942962646484
F-1.0
F0.0
I0
I-1
S'T'
p94
tp95
a((F275.6471252441406
F214.8709259033203
tp96
F47.922386169433594
F-1.0
F0.0
I0
I-1
S'I'
p97
tp98
a((F527.0594482421875
F266.9753112792969
tp99
F48.871315002441406
F-1.0
F0.0
I0
I-1
S'3'
p100
tp101
a((F636.7926025390625
F265.6803283691406
tp102
F51.48417663574219
F-1.0
F0.0
I0
I-1
S'1'
p103
tp104
a((F219.56568908691406
F215.2815399169922
tp105
F49.356529235839844
F-1.0
F0.0
I0
I-1
S'O'
p106
tp107
a((F552.870361328125
F213.97816467285156
tp108
F49.769046783447266
F-1.0
F0.0
I0
I-1
S'E'
p109
tp110
a((F537.48193359375
F161.45774841308594
tp111
F46.917362213134766
F-1.0
F0.0
I0
I-1
S'D'
p112
tp113
a((F662.5722045898438
F214.3600311279297
tp114
F50.529258728027344
F-1.0
F0.0
I0
I-1
S'Q'
p115
tp116
a((F607.1939697265625
F214.5472869873047
tp117
F48.8989143371582
F-1.0
F0.0
I0
I-1
S'W'
p118
tp119
a((F482.53662109375
F162.9319305419922
tp120
F51.450069427490234
F-1.0
F0.0
I0
I-1
S'F'
p121
tp122
a((F499.17169189453125
F215.97779846191406
tp123
F47.13323974609375
F-1.0
F0.0
I0
I-1
S'R'
p124
tp125
a((F428.2109680175781
F162.30287170410156
tp126
F48.93535232543945
F-1.0
F0.0
I0
I-1
S'G'
p127
tp128
a((F508.0
F113.0
tp129
F24.413110733032227
F-1.0
F0.0
I0
I-1
S'C'
p130
tp131
a((F58.37937545776367
F112.26622009277344
tp132
F71.4704818725586
F-1.0
F0.0
I0
I-1
S'Shift'
p133
tp134
a((F234.071533203125
F112.48006439208984
tp135
F47.67469787597656
F-1.0
F0.0
I0
I-1
S','
p136
tp137
a((F153.89012145996094
F163.8008270263672
tp138
F49.67732238769531
F-1.0
F0.0
I0
I-1
S';'
p139
tp140
a((F54.65656661987305
F216.97604370117188
tp141
F44.77570724487305
F-1.0
F0.0
I0
I-1
S']'
p142
tp143
a.